target datalayout = "e-m:e-p270:32:32-p271:32:32-p272:64:64-i64:64-i128:128-f80:128-n8:16:32:64-S128"
target triple = "x86_64-pc-linux-gnu"

%struct.pkcs7_st = type { ptr, i64, i32, i32, ptr, %union.anon, %struct.PKCS7_CTX_st }
%union.anon = type { ptr }
%struct.PKCS7_CTX_st = type { ptr, ptr }

@PKCS7_it.local_it = internal constant { i8, [7 x i8], i64, ptr, i64, ptr, i64, ptr } { i8 6, [7 x i8] zeroinitializer, i64 16, ptr @PKCS7_seq_tt, i64 2, ptr @PKCS7_aux, i64 56, ptr @.str }, align 8

; Function Attrs: nounwind uwtable
define ptr @PKCS7_it() #0 {
  ret ptr @PKCS7_it.local_it
}

; Function Attrs: nounwind uwtable
define ptr @d2i_PKCS7(ptr noundef %0, ptr noundef %1, i64 noundef %2) #0 {
  %4 = alloca ptr, align 8
  %5 = alloca ptr, align 8
  %6 = alloca i64, align 8
  %7 = alloca ptr, align 8
  %8 = alloca ptr, align 8
  %9 = alloca ptr, align 8
  store ptr %0, ptr %4, align 8, !tbaa !3
  store ptr %1, ptr %5, align 8, !tbaa !8
  store i64 %2, ptr %6, align 8, !tbaa !10
  call void @llvm.lifetime.start.p0(i64 8, ptr %7) #3
  call void @llvm.lifetime.start.p0(i64 8, ptr %8) #3
  store ptr null, ptr %8, align 8, !tbaa !12
  call void @llvm.lifetime.start.p0(i64 8, ptr %9) #3
  store ptr null, ptr %9, align 8, !tbaa !14
  %10 = load ptr, ptr %4, align 8, !tbaa !3
  %11 = icmp ne ptr %10, null
  br i1 %11, label %12, label %27

12:                                               ; preds = %3
  %13 = load ptr, ptr %4, align 8, !tbaa !3
  %14 = load ptr, ptr %13, align 8, !tbaa !16
  %15 = icmp ne ptr %14, null
  br i1 %15, label %16, label %27

16:                                               ; preds = %12
  %17 = load ptr, ptr %4, align 8, !tbaa !3
  %18 = load ptr, ptr %17, align 8, !tbaa !16
  %19 = getelementptr inbounds nuw %struct.pkcs7_st, ptr %18, i32 0, i32 6
  %20 = getelementptr inbounds nuw %struct.PKCS7_CTX_st, ptr %19, i32 0, i32 0
  %21 = load ptr, ptr %20, align 8, !tbaa !18
  store ptr %21, ptr %8, align 8, !tbaa !12
  %22 = load ptr, ptr %4, align 8, !tbaa !3
  %23 = load ptr, ptr %22, align 8, !tbaa !16
  %24 = getelementptr inbounds nuw %struct.pkcs7_st, ptr %23, i32 0, i32 6
  %25 = getelementptr inbounds nuw %struct.PKCS7_CTX_st, ptr %24, i32 0, i32 1
  %26 = load ptr, ptr %25, align 8, !tbaa !23
  store ptr %26, ptr %9, align 8, !tbaa !14
  br label %27

27:                                               ; preds = %16, %12, %3
  %28 = load ptr, ptr %4, align 8, !tbaa !3
  %29 = load ptr, ptr %5, align 8, !tbaa !8
  %30 = load i64, ptr %6, align 8, !tbaa !10
  %31 = call ptr @PKCS7_it()
  %32 = load ptr, ptr %8, align 8, !tbaa !12
  %33 = load ptr, ptr %9, align 8, !tbaa !14
  %34 = call ptr @ASN1_item_d2i_ex(ptr noundef %28, ptr noundef %29, i64 noundef %30, ptr noundef %31, ptr noundef %32, ptr noundef %33)
  store ptr %34, ptr %7, align 8, !tbaa !16
  %35 = load ptr, ptr %7, align 8, !tbaa !16
  %36 = icmp ne ptr %35, null
  br i1 %36, label %37, label %39

37:                                               ; preds = %27
  %38 = load ptr, ptr %7, align 8, !tbaa !16
  call void @ossl_pkcs7_resolve_libctx(ptr noundef %38)
  br label %39

39:                                               ; preds = %37, %27
  %40 = load ptr, ptr %7, align 8, !tbaa !16
  call void @llvm.lifetime.end.p0(i64 8, ptr %9) #3
  call void @llvm.lifetime.end.p0(i64 8, ptr %8) #3
  call void @llvm.lifetime.end.p0(i64 8, ptr %7) #3
  ret ptr %40
}