; Function Attrs: nounwind uwtable
define ptr @d2i_PKCS7(ptr noundef %0, ptr noundef %1, i64 noundef %2) local_unnamed_addr #1 {
  %.not = icmp eq ptr %0, null
  br i1 %.not, label %11, label %4

4:                                                ; preds = %3
  %5 = load ptr, ptr %0, align 8, !tbaa !3
  %.not15 = icmp eq ptr %5, null
  br i1 %.not15, label %11, label %6

6:                                                ; preds = %4
  %7 = getelementptr inbounds nuw i8, ptr %5, i64 40
  %8 = load ptr, ptr %7, align 8, !tbaa !8
  %9 = getelementptr inbounds nuw i8, ptr %5, i64 48
  %10 = load ptr, ptr %9, align 8, !tbaa !16
  br label %11

11:                                               ; preds = %6, %4, %3
  %.011 = phi ptr [ %8, %6 ], [ null, %4 ], [ null, %3 ]
  %.0 = phi ptr [ %10, %6 ], [ null, %4 ], [ null, %3 ]
  %12 = tail call ptr @ASN1_item_d2i_ex(ptr noundef %0, ptr noundef %1, i64 noundef %2, ptr noundef nonnull @PKCS7_it.local_it, ptr noundef %.011, ptr noundef %.0) #3
  %.not16 = icmp eq ptr %12, null
  br i1 %.not16, label %14, label %13

13:                                               ; preds = %11
  tail call void @ossl_pkcs7_resolve_libctx(ptr noundef nonnull %12) #3
  br label %14

14:                                               ; preds = %13, %11
  ret ptr %12
}